; Function Attrs: mustprogress nounwind uwtable
define internal void @_ZN10open_spiel12_GLOBAL__N_117StatefulRandomBotD2Ev(ptr nocapture noundef nonnull align 8 dereferenceable(5024) %0) unnamed_addr #4 align 2 personality ptr @__gxx_personality_v0 {
  store ptr getelementptr inbounds inrange(-16, 120) (i8, ptr @_ZTVN10open_spiel12_GLOBAL__N_117StatefulRandomBotE, i64 16), ptr %0, align 8
  %2 = getelementptr inbounds nuw i8, ptr %0, i64 5016
  %3 = load ptr, ptr %2, align 8
  %.not.i = icmp eq ptr %3, null
  br i1 %.not.i, label %_ZNSt10unique_ptrIN10open_spiel5StateESt14default_deleteIS1_EED2Ev.exit, label %_ZNKSt14default_deleteIN10open_spiel5StateEEclEPS1_.exit.i

_ZNKSt14default_deleteIN10open_spiel5StateEEclEPS1_.exit.i: ; preds = %1
  %4 = load ptr, ptr %3, align 8
  %5 = getelementptr inbounds i8, ptr %4, i64 8
  %6 = load ptr, ptr %5, align 8
  tail call void %6(ptr noundef nonnull align 8 dereferenceable(60) %3) #23
  br label %_ZNSt10unique_ptrIN10open_spiel5StateESt14default_deleteIS1_EED2Ev.exit

_ZNSt10unique_ptrIN10open_spiel5StateESt14default_deleteIS1_EED2Ev.exit: ; preds = %1, %_ZNKSt14default_deleteIN10open_spiel5StateEEclEPS1_.exit.i
  store ptr null, ptr %2, align 8
  ret void
}